
build.de10lite_scr1/riscv_main.elf:     file format elf32-littleriscv
build.de10lite_scr1/riscv_main.elf
architecture: riscv:rv32, flags 0x00000112:
EXEC_P, HAS_SYMS, D_PAGED
start address 0x0000ff00

Program Header:
    LOAD off    0x00001000 vaddr 0x00000000 paddr 0x00000000 align 2**12
         filesz 0x00001400 memsz 0x00001400 flags rw-
    LOAD off    0x00002400 vaddr 0x00001400 paddr 0x00001400 align 2**12
         filesz 0x0000018c memsz 0x0000018c flags r--
    LOAD off    0x000025a0 vaddr 0x000015a0 paddr 0x000015a0 align 2**12
         filesz 0x000005b8 memsz 0x000005b8 flags r-x
    LOAD off    0x00003800 vaddr 0x0000f800 paddr 0x0000f800 align 2**12
         filesz 0x000007c0 memsz 0x000007c0 flags r-x
     TLS off    0x00002400 vaddr 0x00001400 paddr 0x00001400 align 2**3
         filesz 0x00000000 memsz 0x00000180 flags r--

Sections:
Idx Name              Size      VMA       LMA       File off  Algn  Flags
  0 .stack            00001400  00000000  00000000  00001000  2**0  CONTENTS, ALLOC, LOAD, DATA
  1 .sbss             00000000  00001400  00001400  00003fc0  2**0  CONTENTS
  2 .tdata            00000000  00001400  00001400  00003fc0  2**0  CONTENTS, ALLOC, LOAD, DATA, THREAD_LOCAL
  3 .tbss             00000180  00001400  00001400  00002400  2**3  ALLOC, THREAD_LOCAL
  4 .rodata           0000018c  00001400  00001400  00002400  2**2  CONTENTS, ALLOC, LOAD, READONLY, DATA
  5 .text             000005b8  000015a0  000015a0  000025a0  2**2  CONTENTS, ALLOC, LOAD, READONLY, CODE
  6 .startup          00000254  0000f800  0000f800  00003800  2**11  CONTENTS, ALLOC, LOAD, READONLY, CODE
  7 .vectors          000000c0  0000ff00  0000ff00  00003f00  2**7  CONTENTS, ALLOC, LOAD, READONLY, CODE
  8 .comment          00000011  00000000  00000000  00003fc0  2**0  CONTENTS, READONLY
  9 .riscv.attributes 00000021  00000000  00000000  00003fd1  2**0  CONTENTS, READONLY
SYMBOL TABLE:
00000000 l    d  .stack	00000000 .stack
00001400 l    d  .sbss	00000000 .sbss
00001400 l    d  .tdata	00000000 .tdata
00001400 l    d  .tbss	00000000 .tbss
00001400 l    d  .rodata	00000000 .rodata
000015a0 l    d  .text	00000000 .text
0000f800 l    d  .startup	00000000 .startup
0000ff00 l    d  .vectors	00000000 .vectors
00000000 l    d  .comment	00000000 .comment
00000000 l    d  .riscv.attributes	00000000 .riscv.attributes
00000000 l    df *ABS*	00000000 riscv_main.c
00000000 l    df *ABS*	00000000 trap.c
000014dc l     O .rodata	00000080 regnames.1818
00000000 l    df *ABS*	00000000 leds.c
00001ac0 l     F .text	00000050 sc1f_leds_hex.part.0
0000155c l     O .rodata	00000030 HEX_MAP
00000000 l    df *ABS*	00000000 uart.c
00000000 l    df *ABS*	00000000 build.de10lite_scr1/boot.o
0000f800 l       .startup	00000000 _crt_start
0000fa30 l       .startup	00000000 __trap_hander_1v10
0000f8e0 l       .startup	00000000 interrupt_handler
0000f8e0 l       .startup	00000000 unexpected_int_handler
0000f900 l       .startup	00000000 handle_trap_in_machine_mode
0000ff40 l       .vectors	00000000 __nmi_trap_entry
0000ff80 l       .vectors	00000000 __trap_entry
00001638  w    F .text	00000040 putchar
00001638 g     F .text	00000040 sc1f_uart_putchar
00001400 g       *ABS*	00000000 STACK_SIZE
00001c00 g       .tdata	00000000 __global_pointer$
00001a30 g     F .text	00000090 mcall_trap
00001280 g       *ABS*	00000000 __TLS0_BASE__
00001400 g       .stack	00000000 __C_STACK_TOP__
0000f8bc g       .startup	00000000 _hart_halt
00001400 g       .stack	00000000 __STACK_END__
00001770 g     F .text	000000ec uart_putdec
00001b10 g     F .text	00000048 sc1f_leds_init
00000020 g       *ABS*	00000000 SEC_ALIGN
000016c4 g     F .text	00000064 uart_puthex8
00001400 g       .tdata	00000000 _tls_data
00001a08 g     F .text	00000028 bad_trap_handler
00001678 g     F .text	0000004c uart_puts
0000ff00 g       .vectors	00000000 _start
00001728 g     F .text	00000048 uart_puthex32
00001400 g       .tbss	00000000 _tbss_begin
00001400 g       .sbss	00000000 __BSS_END__
000015a0 g     F .text	00000058 main
00001b58 g       .text	00000000 __TEXT_END__
000019e0 g     F .text	00000028 bad_trap
000015f8 g     F .text	00000040 sc1f_uart_init
00001400 g       .stack	00000000 __BSS_START__
00001400 g       .tdata	00000000 _tdata_end
00000000 g       .stack	00000000 _end
00001400 g       .tdata	00000000 _tdata_begin
00000000 g       .tbss	00000180 hart_local_storage
00001580 g       .tbss	00000000 _tbss_end
00000180 g       *ABS*	00000000 __TLS_SIZE__
00000000 g       .stack	00000000 __STACK_START__
0000185c g     F .text	00000184 print_bad_trap
000015a0 g       .text	00000000 __TEXT_START__


Contents of section .stack:
 0000 00000000 00000000 00000000 00000000  ................
 0010 00000000 00000000 00000000 00000000  ................
 0020 00000000 00000000 00000000 00000000  ................
 0030 00000000 00000000 00000000 00000000  ................
 0040 00000000 00000000 00000000 00000000  ................
 0050 00000000 00000000 00000000 00000000  ................
 0060 00000000 00000000 00000000 00000000  ................
 0070 00000000 00000000 00000000 00000000  ................
 0080 00000000 00000000 00000000 00000000  ................
 0090 00000000 00000000 00000000 00000000  ................
 00a0 00000000 00000000 00000000 00000000  ................
 00b0 00000000 00000000 00000000 00000000  ................
 00c0 00000000 00000000 00000000 00000000  ................
 00d0 00000000 00000000 00000000 00000000  ................
 00e0 00000000 00000000 00000000 00000000  ................
 00f0 00000000 00000000 00000000 00000000  ................
 0100 00000000 00000000 00000000 00000000  ................
 0110 00000000 00000000 00000000 00000000  ................
 0120 00000000 00000000 00000000 00000000  ................
 0130 00000000 00000000 00000000 00000000  ................
 0140 00000000 00000000 00000000 00000000  ................
 0150 00000000 00000000 00000000 00000000  ................
 0160 00000000 00000000 00000000 00000000  ................
 0170 00000000 00000000 00000000 00000000  ................
 0180 00000000 00000000 00000000 00000000  ................
 0190 00000000 00000000 00000000 00000000  ................
 01a0 00000000 00000000 00000000 00000000  ................
 01b0 00000000 00000000 00000000 00000000  ................
 01c0 00000000 00000000 00000000 00000000  ................
 01d0 00000000 00000000 00000000 00000000  ................
 01e0 00000000 00000000 00000000 00000000  ................
 01f0 00000000 00000000 00000000 00000000  ................
 0200 00000000 00000000 00000000 00000000  ................
 0210 00000000 00000000 00000000 00000000  ................
 0220 00000000 00000000 00000000 00000000  ................
 0230 00000000 00000000 00000000 00000000  ................
 0240 00000000 00000000 00000000 00000000  ................
 0250 00000000 00000000 00000000 00000000  ................
 0260 00000000 00000000 00000000 00000000  ................
 0270 00000000 00000000 00000000 00000000  ................
 0280 00000000 00000000 00000000 00000000  ................
 0290 00000000 00000000 00000000 00000000  ................
 02a0 00000000 00000000 00000000 00000000  ................
 02b0 00000000 00000000 00000000 00000000  ................
 02c0 00000000 00000000 00000000 00000000  ................
 02d0 00000000 00000000 00000000 00000000  ................
 02e0 00000000 00000000 00000000 00000000  ................
 02f0 00000000 00000000 00000000 00000000  ................
 0300 00000000 00000000 00000000 00000000  ................
 0310 00000000 00000000 00000000 00000000  ................
 0320 00000000 00000000 00000000 00000000  ................
 0330 00000000 00000000 00000000 00000000  ................
 0340 00000000 00000000 00000000 00000000  ................
 0350 00000000 00000000 00000000 00000000  ................
 0360 00000000 00000000 00000000 00000000  ................
 0370 00000000 00000000 00000000 00000000  ................
 0380 00000000 00000000 00000000 00000000  ................
 0390 00000000 00000000 00000000 00000000  ................
 03a0 00000000 00000000 00000000 00000000  ................
 03b0 00000000 00000000 00000000 00000000  ................
 03c0 00000000 00000000 00000000 00000000  ................
 03d0 00000000 00000000 00000000 00000000  ................
 03e0 00000000 00000000 00000000 00000000  ................
 03f0 00000000 00000000 00000000 00000000  ................
 0400 00000000 00000000 00000000 00000000  ................
 0410 00000000 00000000 00000000 00000000  ................
 0420 00000000 00000000 00000000 00000000  ................
 0430 00000000 00000000 00000000 00000000  ................
 0440 00000000 00000000 00000000 00000000  ................
 0450 00000000 00000000 00000000 00000000  ................
 0460 00000000 00000000 00000000 00000000  ................
 0470 00000000 00000000 00000000 00000000  ................
 0480 00000000 00000000 00000000 00000000  ................
 0490 00000000 00000000 00000000 00000000  ................
 04a0 00000000 00000000 00000000 00000000  ................
 04b0 00000000 00000000 00000000 00000000  ................
 04c0 00000000 00000000 00000000 00000000  ................
 04d0 00000000 00000000 00000000 00000000  ................
 04e0 00000000 00000000 00000000 00000000  ................
 04f0 00000000 00000000 00000000 00000000  ................
 0500 00000000 00000000 00000000 00000000  ................
 0510 00000000 00000000 00000000 00000000  ................
 0520 00000000 00000000 00000000 00000000  ................
 0530 00000000 00000000 00000000 00000000  ................
 0540 00000000 00000000 00000000 00000000  ................
 0550 00000000 00000000 00000000 00000000  ................
 0560 00000000 00000000 00000000 00000000  ................
 0570 00000000 00000000 00000000 00000000  ................
 0580 00000000 00000000 00000000 00000000  ................
 0590 00000000 00000000 00000000 00000000  ................
 05a0 00000000 00000000 00000000 00000000  ................
 05b0 00000000 00000000 00000000 00000000  ................
 05c0 00000000 00000000 00000000 00000000  ................
 05d0 00000000 00000000 00000000 00000000  ................
 05e0 00000000 00000000 00000000 00000000  ................
 05f0 00000000 00000000 00000000 00000000  ................
 0600 00000000 00000000 00000000 00000000  ................
 0610 00000000 00000000 00000000 00000000  ................
 0620 00000000 00000000 00000000 00000000  ................
 0630 00000000 00000000 00000000 00000000  ................
 0640 00000000 00000000 00000000 00000000  ................
 0650 00000000 00000000 00000000 00000000  ................
 0660 00000000 00000000 00000000 00000000  ................
 0670 00000000 00000000 00000000 00000000  ................
 0680 00000000 00000000 00000000 00000000  ................
 0690 00000000 00000000 00000000 00000000  ................
 06a0 00000000 00000000 00000000 00000000  ................
 06b0 00000000 00000000 00000000 00000000  ................
 06c0 00000000 00000000 00000000 00000000  ................
 06d0 00000000 00000000 00000000 00000000  ................
 06e0 00000000 00000000 00000000 00000000  ................
 06f0 00000000 00000000 00000000 00000000  ................
 0700 00000000 00000000 00000000 00000000  ................
 0710 00000000 00000000 00000000 00000000  ................
 0720 00000000 00000000 00000000 00000000  ................
 0730 00000000 00000000 00000000 00000000  ................
 0740 00000000 00000000 00000000 00000000  ................
 0750 00000000 00000000 00000000 00000000  ................
 0760 00000000 00000000 00000000 00000000  ................
 0770 00000000 00000000 00000000 00000000  ................
 0780 00000000 00000000 00000000 00000000  ................
 0790 00000000 00000000 00000000 00000000  ................
 07a0 00000000 00000000 00000000 00000000  ................
 07b0 00000000 00000000 00000000 00000000  ................
 07c0 00000000 00000000 00000000 00000000  ................
 07d0 00000000 00000000 00000000 00000000  ................
 07e0 00000000 00000000 00000000 00000000  ................
 07f0 00000000 00000000 00000000 00000000  ................
 0800 00000000 00000000 00000000 00000000  ................
 0810 00000000 00000000 00000000 00000000  ................
 0820 00000000 00000000 00000000 00000000  ................
 0830 00000000 00000000 00000000 00000000  ................
 0840 00000000 00000000 00000000 00000000  ................
 0850 00000000 00000000 00000000 00000000  ................
 0860 00000000 00000000 00000000 00000000  ................
 0870 00000000 00000000 00000000 00000000  ................
 0880 00000000 00000000 00000000 00000000  ................
 0890 00000000 00000000 00000000 00000000  ................
 08a0 00000000 00000000 00000000 00000000  ................
 08b0 00000000 00000000 00000000 00000000  ................
 08c0 00000000 00000000 00000000 00000000  ................
 08d0 00000000 00000000 00000000 00000000  ................
 08e0 00000000 00000000 00000000 00000000  ................
 08f0 00000000 00000000 00000000 00000000  ................
 0900 00000000 00000000 00000000 00000000  ................
 0910 00000000 00000000 00000000 00000000  ................
 0920 00000000 00000000 00000000 00000000  ................
 0930 00000000 00000000 00000000 00000000  ................
 0940 00000000 00000000 00000000 00000000  ................
 0950 00000000 00000000 00000000 00000000  ................
 0960 00000000 00000000 00000000 00000000  ................
 0970 00000000 00000000 00000000 00000000  ................
 0980 00000000 00000000 00000000 00000000  ................
 0990 00000000 00000000 00000000 00000000  ................
 09a0 00000000 00000000 00000000 00000000  ................
 09b0 00000000 00000000 00000000 00000000  ................
 09c0 00000000 00000000 00000000 00000000  ................
 09d0 00000000 00000000 00000000 00000000  ................
 09e0 00000000 00000000 00000000 00000000  ................
 09f0 00000000 00000000 00000000 00000000  ................
 0a00 00000000 00000000 00000000 00000000  ................
 0a10 00000000 00000000 00000000 00000000  ................
 0a20 00000000 00000000 00000000 00000000  ................
 0a30 00000000 00000000 00000000 00000000  ................
 0a40 00000000 00000000 00000000 00000000  ................
 0a50 00000000 00000000 00000000 00000000  ................
 0a60 00000000 00000000 00000000 00000000  ................
 0a70 00000000 00000000 00000000 00000000  ................
 0a80 00000000 00000000 00000000 00000000  ................
 0a90 00000000 00000000 00000000 00000000  ................
 0aa0 00000000 00000000 00000000 00000000  ................
 0ab0 00000000 00000000 00000000 00000000  ................
 0ac0 00000000 00000000 00000000 00000000  ................
 0ad0 00000000 00000000 00000000 00000000  ................
 0ae0 00000000 00000000 00000000 00000000  ................
 0af0 00000000 00000000 00000000 00000000  ................
 0b00 00000000 00000000 00000000 00000000  ................
 0b10 00000000 00000000 00000000 00000000  ................
 0b20 00000000 00000000 00000000 00000000  ................
 0b30 00000000 00000000 00000000 00000000  ................
 0b40 00000000 00000000 00000000 00000000  ................
 0b50 00000000 00000000 00000000 00000000  ................
 0b60 00000000 00000000 00000000 00000000  ................
 0b70 00000000 00000000 00000000 00000000  ................
 0b80 00000000 00000000 00000000 00000000  ................
 0b90 00000000 00000000 00000000 00000000  ................
 0ba0 00000000 00000000 00000000 00000000  ................
 0bb0 00000000 00000000 00000000 00000000  ................
 0bc0 00000000 00000000 00000000 00000000  ................
 0bd0 00000000 00000000 00000000 00000000  ................
 0be0 00000000 00000000 00000000 00000000  ................
 0bf0 00000000 00000000 00000000 00000000  ................
 0c00 00000000 00000000 00000000 00000000  ................
 0c10 00000000 00000000 00000000 00000000  ................
 0c20 00000000 00000000 00000000 00000000  ................
 0c30 00000000 00000000 00000000 00000000  ................
 0c40 00000000 00000000 00000000 00000000  ................
 0c50 00000000 00000000 00000000 00000000  ................
 0c60 00000000 00000000 00000000 00000000  ................
 0c70 00000000 00000000 00000000 00000000  ................
 0c80 00000000 00000000 00000000 00000000  ................
 0c90 00000000 00000000 00000000 00000000  ................
 0ca0 00000000 00000000 00000000 00000000  ................
 0cb0 00000000 00000000 00000000 00000000  ................
 0cc0 00000000 00000000 00000000 00000000  ................
 0cd0 00000000 00000000 00000000 00000000  ................
 0ce0 00000000 00000000 00000000 00000000  ................
 0cf0 00000000 00000000 00000000 00000000  ................
 0d00 00000000 00000000 00000000 00000000  ................
 0d10 00000000 00000000 00000000 00000000  ................
 0d20 00000000 00000000 00000000 00000000  ................
 0d30 00000000 00000000 00000000 00000000  ................
 0d40 00000000 00000000 00000000 00000000  ................
 0d50 00000000 00000000 00000000 00000000  ................
 0d60 00000000 00000000 00000000 00000000  ................
 0d70 00000000 00000000 00000000 00000000  ................
 0d80 00000000 00000000 00000000 00000000  ................
 0d90 00000000 00000000 00000000 00000000  ................
 0da0 00000000 00000000 00000000 00000000  ................
 0db0 00000000 00000000 00000000 00000000  ................
 0dc0 00000000 00000000 00000000 00000000  ................
 0dd0 00000000 00000000 00000000 00000000  ................
 0de0 00000000 00000000 00000000 00000000  ................
 0df0 00000000 00000000 00000000 00000000  ................
 0e00 00000000 00000000 00000000 00000000  ................
 0e10 00000000 00000000 00000000 00000000  ................
 0e20 00000000 00000000 00000000 00000000  ................
 0e30 00000000 00000000 00000000 00000000  ................
 0e40 00000000 00000000 00000000 00000000  ................
 0e50 00000000 00000000 00000000 00000000  ................
 0e60 00000000 00000000 00000000 00000000  ................
 0e70 00000000 00000000 00000000 00000000  ................
 0e80 00000000 00000000 00000000 00000000  ................
 0e90 00000000 00000000 00000000 00000000  ................
 0ea0 00000000 00000000 00000000 00000000  ................
 0eb0 00000000 00000000 00000000 00000000  ................
 0ec0 00000000 00000000 00000000 00000000  ................
 0ed0 00000000 00000000 00000000 00000000  ................
 0ee0 00000000 00000000 00000000 00000000  ................
 0ef0 00000000 00000000 00000000 00000000  ................
 0f00 00000000 00000000 00000000 00000000  ................
 0f10 00000000 00000000 00000000 00000000  ................
 0f20 00000000 00000000 00000000 00000000  ................
 0f30 00000000 00000000 00000000 00000000  ................
 0f40 00000000 00000000 00000000 00000000  ................
 0f50 00000000 00000000 00000000 00000000  ................
 0f60 00000000 00000000 00000000 00000000  ................
 0f70 00000000 00000000 00000000 00000000  ................
 0f80 00000000 00000000 00000000 00000000  ................
 0f90 00000000 00000000 00000000 00000000  ................
 0fa0 00000000 00000000 00000000 00000000  ................
 0fb0 00000000 00000000 00000000 00000000  ................
 0fc0 00000000 00000000 00000000 00000000  ................
 0fd0 00000000 00000000 00000000 00000000  ................
 0fe0 00000000 00000000 00000000 00000000  ................
 0ff0 00000000 00000000 00000000 00000000  ................
 1000 00000000 00000000 00000000 00000000  ................
 1010 00000000 00000000 00000000 00000000  ................
 1020 00000000 00000000 00000000 00000000  ................
 1030 00000000 00000000 00000000 00000000  ................
 1040 00000000 00000000 00000000 00000000  ................
 1050 00000000 00000000 00000000 00000000  ................
 1060 00000000 00000000 00000000 00000000  ................
 1070 00000000 00000000 00000000 00000000  ................
 1080 00000000 00000000 00000000 00000000  ................
 1090 00000000 00000000 00000000 00000000  ................
 10a0 00000000 00000000 00000000 00000000  ................
 10b0 00000000 00000000 00000000 00000000  ................
 10c0 00000000 00000000 00000000 00000000  ................
 10d0 00000000 00000000 00000000 00000000  ................
 10e0 00000000 00000000 00000000 00000000  ................
 10f0 00000000 00000000 00000000 00000000  ................
 1100 00000000 00000000 00000000 00000000  ................
 1110 00000000 00000000 00000000 00000000  ................
 1120 00000000 00000000 00000000 00000000  ................
 1130 00000000 00000000 00000000 00000000  ................
 1140 00000000 00000000 00000000 00000000  ................
 1150 00000000 00000000 00000000 00000000  ................
 1160 00000000 00000000 00000000 00000000  ................
 1170 00000000 00000000 00000000 00000000  ................
 1180 00000000 00000000 00000000 00000000  ................
 1190 00000000 00000000 00000000 00000000  ................
 11a0 00000000 00000000 00000000 00000000  ................
 11b0 00000000 00000000 00000000 00000000  ................
 11c0 00000000 00000000 00000000 00000000  ................
 11d0 00000000 00000000 00000000 00000000  ................
 11e0 00000000 00000000 00000000 00000000  ................
 11f0 00000000 00000000 00000000 00000000  ................
 1200 00000000 00000000 00000000 00000000  ................
 1210 00000000 00000000 00000000 00000000  ................
 1220 00000000 00000000 00000000 00000000  ................
 1230 00000000 00000000 00000000 00000000  ................
 1240 00000000 00000000 00000000 00000000  ................
 1250 00000000 00000000 00000000 00000000  ................
 1260 00000000 00000000 00000000 00000000  ................
 1270 00000000 00000000 00000000 00000000  ................
 1280 00000000 00000000 00000000 00000000  ................
 1290 00000000 00000000 00000000 00000000  ................
 12a0 00000000 00000000 00000000 00000000  ................
 12b0 00000000 00000000 00000000 00000000  ................
 12c0 00000000 00000000 00000000 00000000  ................
 12d0 00000000 00000000 00000000 00000000  ................
 12e0 00000000 00000000 00000000 00000000  ................
 12f0 00000000 00000000 00000000 00000000  ................
 1300 00000000 00000000 00000000 00000000  ................
 1310 00000000 00000000 00000000 00000000  ................
 1320 00000000 00000000 00000000 00000000  ................
 1330 00000000 00000000 00000000 00000000  ................
 1340 00000000 00000000 00000000 00000000  ................
 1350 00000000 00000000 00000000 00000000  ................
 1360 00000000 00000000 00000000 00000000  ................
 1370 00000000 00000000 00000000 00000000  ................
 1380 00000000 00000000 00000000 00000000  ................
 1390 00000000 00000000 00000000 00000000  ................
 13a0 00000000 00000000 00000000 00000000  ................
 13b0 00000000 00000000 00000000 00000000  ................
 13c0 00000000 00000000 00000000 00000000  ................
 13d0 00000000 00000000 00000000 00000000  ................
 13e0 00000000 00000000 00000000 00000000  ................
 13f0 00000000 00000000 00000000 00000000  ................
Contents of section .rodata:
 1400 756e6b6f 00000000 20747261 70200000  unko.... trap ..
 1410 20402000 20286861 72742300 20737461   @ . (hart#. sta
 1420 74757320 00000000 206d7476 616c2000  tus .... mtval .
 1430 290a2020 20696e73 74202000 20202020  ).   inst  .    
 1440 6379636c 20200000 42616400 2b556e68  cycl  ..Bad.+Unh
 1450 616e646c 61626c65 00000000 7a202000  andlable....z  .
 1460 72612000 73702000 67702000 74702000  ra .sp .gp .tp .
 1470 74302000 74312000 74322000 73302000  t0 .t1 .t2 .s0 .
 1480 73312000 61302000 61312000 61322000  s1 .a0 .a1 .a2 .
 1490 61332000 61342000 61352000 61362000  a3 .a4 .a5 .a6 .
 14a0 61372000 73322000 73332000 73342000  a7 .s2 .s3 .s4 .
 14b0 73352000 73362000 73372000 73382000  s5 .s6 .s7 .s8 .
 14c0 73392000 73313000 73313100 74332000  s9 .s10.s11.t3 .
 14d0 74342000 74352000 74362000 5c140000  t4 .t5 .t6 .\...
 14e0 60140000 64140000 68140000 6c140000  `...d...h...l...
 14f0 70140000 74140000 78140000 7c140000  p...t...x...|...
 1500 80140000 84140000 88140000 8c140000  ................
 1510 90140000 94140000 98140000 9c140000  ................
 1520 a0140000 a4140000 a8140000 ac140000  ................
 1530 b0140000 b4140000 b8140000 bc140000  ................
 1540 c0140000 c4140000 c8140000 cc140000  ................
 1550 d0140000 d4140000 d8140000 200002ff  ............ ...
 1560 08000000 200002ff 00000000 100002ff  .... ...........
 1570 08000000 100002ff 00000000 000002ff  ................
 1580 08000000 000002ff 00000000           ............    
Contents of section .text:
 15a0 130101ff b70704f0 23261100 23a00700  ........#&..#...
 15b0 23a40700 23a60700 1307f0ff 23aae700  #...#.......#...
 15c0 23a8e700 1307f002 23a2e700 13071000  #.......#.......
 15d0 23a0e700 ef004002 ef008053 37150000  #.....@....S7...
 15e0 13050540 ef004009 b71702ff 1307a00a  ...@..@.........
 15f0 23a0e700 6f000000 b70701ff 23a20700  #...o.......#...
 1600 23a80700 13073008 23a6e700 1307a001  #.....0.#.......
 1610 23a0e700 23a20700 13073000 23a6e700  #...#.....0.#...
 1620 13076000 23a4e700 13071000 23a4e700  ..`.#.......#...
 1630 23a4e700 67800000 9307a000 6300f502  #...g.......c...
 1640 370701ff 83274701 93f70702 e38c07fe  7....'G.........
 1650 9377f50f 2320f700 67800000 370701ff  .w..# ..g...7...
 1660 83274701 93f70702 e38c07fe 9307d000  .'G.............
 1670 2320f700 6ff0dffc 83460500 63880602  # ..o....F..c...
 1680 1306a000 370701ff 9305d000 13051500  ....7...........
 1690 6380c602 83274701 93f70702 e38c07fe  c....'G.........
 16a0 2320d700 83460500 e39206fe 67800000  # ...F......g...
 16b0 83274701 93f70702 e38c07fe 2320b700  .'G.........# ..
 16c0 6ff05ffd 13574500 93079000 b3b7e700  o._..WE.........
 16d0 b307f040 93f77700 93870703 b306f700  ...@..w.........
 16e0 370701ff 83274701 93f70702 e38c07fe  7....'G.........
 16f0 1375f500 93079000 b3b7a700 b307f040  .u.............@
 1700 93f77700 93870703 2320d700 3305f500  ..w.....# ..3...
 1710 370701ff 83274701 93f70702 e38c07fe  7....'G.........
 1720 2320a700 67800000 130101ff 23248100  # ..g.......#$..
 1730 13040500 13558501 23261100 eff09ff8  .....U..#&......
 1740 13550401 1375f50f eff0dff7 13150401  .U...u..........
 1750 13550501 13558500 eff0dff6 1375f40f  .U...U.......u..
 1760 03248100 8320c100 13010101 6ff09ff5  .$... ......o...
 1770 93070000 93060000 6300050c 1307a000  ........c.......
 1780 93088000 13039000 6f008000 637ec306  ........o...c~..
 1790 3378e502 93964600 93850700 93871700  3x....F.........
 17a0 13060500 b366d800 3355e502 e39017ff  .....f..3U......
 17b0 93079000 63f8c704 93073006 b375e502  ....c.....0..u..
 17c0 3355e502 63f8c708 93954500 13081000  3U..c.....E.....
 17d0 b377e502 b3e5f500 370701ff 13f6f500  .w......7.......
 17e0 13060603 83274701 93f70702 e38c07fe  .....'G.........
 17f0 2320c700 93d54500 63060800 13080000  # ....E.c.......
 1800 6ff0dffd 93057000 370701ff 1305f0ff  o.....p.7.......
 1810 13f6f600 13060603 83274701 93f70702  .........'G.....
 1820 e38c07fe 2320c700 9385f5ff 93d64600  ....# ........F.
 1830 e390a5fe 67800000 370701ff 83274701  ....g...7....'G.
 1840 93f70702 e38c07fe 93070003 2320f700  ............# ..
 1850 67800000 13080000 6ff01ff8 130101fe  g.......o.......
 1860 23244101 130a0500 1305a000 232e1100  #$A.........#...
 1870 232c8100 232a9100 13840600 93040600  #,..#*..........
 1880 23282101 23263101 13090700 93890500  #(!.#&1.........
 1890 eff09fda 1305a000 eff01fda 13050a00  ................
 18a0 eff09fdd 37150000 13058540 eff0dfdc  ....7......@....
 18b0 13850900 eff05fe7 37150000 13050541  ......_.7......A
 18c0 eff09fdb 73251034 eff01fe6 37150000  ....s%.4....7...
 18d0 13054541 eff05fda 732540f1 eff05fe9  ..EA.._.s%@..._.
 18e0 37150000 1305c541 eff01fd9 73250030  7......A....s%.0
 18f0 eff09fe3 37150000 13058542 eff0dfd7  ....7......B....
 1900 73253034 eff05fe2 37150000 13050543  s%04.._.7......C
 1910 eff09fd6 13050900 eff01fe1 37150000  ............7...
 1920 1305c543 eff05fd5 13050400 eff0dfdf  ...C.._.........
 1930 1305a000 eff05fd0 63840408 37190000  ......_.c...7...
 1940 1309c94d 13040000 9309a000 130a3000  ...M..........0.
 1950 13050002 eff05fce 13050002 eff0dfcd  ......_.........
 1960 33553403 13094900 93844400 13050503  3U4...I...D.....
 1970 eff09fcc 33753403 13050503 eff0dfcb  ....3u4.........
 1980 13050002 eff05fcb 0325c9ff eff0dfce  ......_..%......
 1990 13050002 eff05fca 03a5c4ff eff0dfd8  ......_.........
 19a0 93773400 1305a000 13041400 63844701  .w4.........c.G.
 19b0 13050002 eff05fc8 93070002 e31af4f8  ......_.........
 19c0 8320c101 03248101 83244101 03290101  . ...$...$A..)..
 19d0 8329c100 032a8100 13010102 67800000  .)...*......g...
 19e0 130101ff 23261100 f3252034 f32600c0  ....#&...% 4.&..
 19f0 732720c0 37150000 13060000 13058544  s' .7..........D
 1a00 eff0dfe5 efd0906b 13870600 93060600  .......k........
 1a10 13860500 93050500 37150000 130101ff  ........7.......
 1a20 1305c544 23261100 eff05fe3 efd01069  ...D#&...._....i
 1a30 83a74504 130101ff 23248100 23261100  ..E.....#$..#&..
 1a40 13072000 13840500 6384e704 13078000  .. .....c.......
 1a50 6386e706 93061000 130780fa 6398d700  c...........c...
 1a60 03c58502 eff05fbd 13070000 2324e402  ......_.....#$..
 1a70 f3271034 93874700 73901734 8320c100  .'.4..G.s..4. ..
 1a80 03248100 13050000 13010101 67800000  .$..........g...
 1a90 370701ff 83274701 93f71700 638c0700  7....'G.....c...
 1aa0 03270700 b7070100 9387f7ff 3377f700  .'..........3w..
 1ab0 6ff0dffb 1307f0ff 6ff05ffb efe04044  o.......o._...@D
 1ac0 93173500 37150000 1305c555 3305f500  ..5.7......U3...
 1ad0 83260500 03264500 1307f00f 83d70600  .&...&E.........
 1ae0 3317c700 1347f7ff 93970701 93d70701  3....G..........
 1af0 93c5f50f b3f7e700 b395c500 b3e7b700  ................
 1b00 93970701 93d70701 2390f600 67800000  ........#...g...
 1b10 130101ff 23248100 23229100 23261100  ....#$..#"..#&..
 1b20 13040000 93046000 13050400 93050000  ......`.........
 1b30 13041400 eff0dff8 e31894fe 8320c100  ............. ..
 1b40 03248100 b71702ff 23a00700 83244100  .$......#....$A.
 1b50 13010101 67800000                    ....g...        
Contents of section .startup:
 f800 b7220000 93820288 73900230 97020000  ."......s..0....
 f810 93824222 73905230 73104034 93020008  ..B"s.R0s.@4....
 f820 73904230 9721ffff 9381c13d 732540f1  s.B0.!.....=s%@.
 f830 63160508 9722ffff 9382c2bc 1723ffff  c....".......#..
 f840 130343bc 6f00c000 23a00200 93824200  ..C.o...#.....B.
 f850 e3ec62fe 1721ffff 1301c1a2 13020100  ..b..!..........
 f860 9722ffff 938202ba 1723ffff 130383b9  .".......#......
 f870 93030200 6f004001 03a50200 23a0a300  ....o.@.....#...
 f880 93824200 93834300 e3e862fe 9722ffff  ..B...C...b.."..
 f890 938242cf b3826240 b3827200 6f00c000  ..B...b@..r.o...
 f8a0 23a00300 93834300 e3ec53fe 73100134  #.....C...S.s..4
 f8b0 13050000 93050000 6f109fce 93020008  ........o.......
 f8c0 73b04230 73005010 6ff0dfff 13000000  s.B0s.P.o.......
 f8d0 13000000 13000000 13000000 13000000  ................
 f8e0 6f200f90 13000000 13000000 13000000  o ..............
 f8f0 13000000 13000000 13000000 13000000  ................
 f900 2328c102 232ad102 732600c0 f32620c0  #(..#*..s&...& .
 f910 23221100 f3150134 2324b100 23263100  #".....4#$..#&1.
 f920 23284100 232a5100 232c6100 232e7100  #(A.#*Q.#,a.#.q.
 f930 23208102 23229102 232ce102 232ef102  # ..#"..#,..#...
 f940 23200105 23221105 23242105 23263105  # ..#"..#$!.#&1.
 f950 23284105 232a5105 232c6105 232e7105  #(A.#*Q.#,a.#.q.
 f960 23208107 23229107 2324a107 2326b107  # ..#"..#$..#&..
 f970 2328c107 232ad107 232ce107 232ef107  #(..#*..#,..#...
 f980 9721ffff 93810128 93050100 93028000  .!.....(........
 f990 6386a200 9302b000 6396a208 13020100  c.......c.......
 f9a0 ef200f89 83204100 8321c100 03220101  . ... A..!..."..
 f9b0 83224101 03238101 8323c101 03240102  ."A..#...#...$..
 f9c0 83244102 8325c102 03260103 83264103  .$A..%...&...&A.
 f9d0 03278103 8327c103 03280104 83284104  .'...'...(...(A.
 f9e0 03298104 8329c104 032a0105 832a4105  .)...)...*...*A.
 f9f0 032b8105 832bc105 032c0106 832c4106  .+...+...,...,A.
 fa00 032d8106 832dc106 032e0107 832e4107  .-...-........A.
 fa10 032f8107 832fc107 03258102 03218100  ./.../...%...!..
 fa20 73002030 6f105ffe 13000000 13000000  s. 0o._.........
 fa30 73110134 2324a102 2326b102 73252034  s..4#$..#&..s% 4
 fa40 e34005ea 6ff0dfeb 00000000 00000000  .@..o...........
 fa50 00000000                             ....            
Contents of section .vectors:
 ff00 6ff01f90 13000000 13000000 13000000  o...............
 ff10 13000000 13000000 13000000 13000000  ................
 ff20 13000000 13000000 13000000 13000000  ................
 ff30 13000000 13000000 13000000 13000000  ................
 ff40 6f101faa 13000000 13000000 13000000  o...............
 ff50 13000000 13000000 13000000 13000000  ................
 ff60 13000000 13000000 13000000 13000000  ................
 ff70 13000000 13000000 13000000 13000000  ................
 ff80 6ff01fab 00000000 00000000 00000000  o...............
 ff90 00000000 00000000 00000000 00000000  ................
 ffa0 00000000 00000000 00000000 00000000  ................
 ffb0 00000000 00000000 00000000 00000000  ................
Contents of section .comment:
 0000 4743433a 2028474e 55292039 2e322e30  GCC: (GNU) 9.2.0
 0010 00                                   .               
Contents of section .riscv.attributes:
 0000 41200000 00726973 63760001 16000000  A ...riscv......
 0010 04100572 76333269 3270305f 6d327030  ...rv32i2p0_m2p0
 0020 00                                   .               

Disassembly of section .text:

000015a0 <main>:
    15a0:	ff010113          	addi	sp,sp,-16
    15a4:	f00407b7          	lui	a5,0xf0040
    15a8:	00112623          	sw	ra,12(sp)
    15ac:	0007a023          	sw	zero,0(a5) # f0040000 <__trap_entry+0xf0030080>
    15b0:	0007a423          	sw	zero,8(a5)
    15b4:	0007a623          	sw	zero,12(a5)
    15b8:	fff00713          	li	a4,-1
    15bc:	00e7aa23          	sw	a4,20(a5)
    15c0:	00e7a823          	sw	a4,16(a5)
    15c4:	02f00713          	li	a4,47
    15c8:	00e7a223          	sw	a4,4(a5)
    15cc:	00100713          	li	a4,1
    15d0:	00e7a023          	sw	a4,0(a5)
    15d4:	024000ef          	jal	ra,15f8 <sc1f_uart_init>
    15d8:	538000ef          	jal	ra,1b10 <sc1f_leds_init>
    15dc:	00001537          	lui	a0,0x1
    15e0:	40050513          	addi	a0,a0,1024 # 1400 <STACK_SIZE>
    15e4:	094000ef          	jal	ra,1678 <uart_puts>
    15e8:	ff0217b7          	lui	a5,0xff021
    15ec:	0aa00713          	li	a4,170
    15f0:	00e7a023          	sw	a4,0(a5) # ff021000 <__trap_entry+0xff011080>
    15f4:	0000006f          	j	15f4 <main+0x54>

000015f8 <sc1f_uart_init>:
    15f8:	ff0107b7          	lui	a5,0xff010
    15fc:	0007a223          	sw	zero,4(a5) # ff010004 <__trap_entry+0xff000084>
    1600:	0007a823          	sw	zero,16(a5)
    1604:	08300713          	li	a4,131
    1608:	00e7a623          	sw	a4,12(a5)
    160c:	01a00713          	li	a4,26
    1610:	00e7a023          	sw	a4,0(a5)
    1614:	0007a223          	sw	zero,4(a5)
    1618:	00300713          	li	a4,3
    161c:	00e7a623          	sw	a4,12(a5)
    1620:	00600713          	li	a4,6
    1624:	00e7a423          	sw	a4,8(a5)
    1628:	00100713          	li	a4,1
    162c:	00e7a423          	sw	a4,8(a5)
    1630:	00e7a423          	sw	a4,8(a5)
    1634:	00008067          	ret

00001638 <sc1f_uart_putchar>:
    1638:	00a00793          	li	a5,10
    163c:	02f50063          	beq	a0,a5,165c <sc1f_uart_putchar+0x24>
    1640:	ff010737          	lui	a4,0xff010
    1644:	01472783          	lw	a5,20(a4) # ff010014 <__trap_entry+0xff000094>
    1648:	0207f793          	andi	a5,a5,32
    164c:	fe078ce3          	beqz	a5,1644 <sc1f_uart_putchar+0xc>
    1650:	0ff57793          	andi	a5,a0,255
    1654:	00f72023          	sw	a5,0(a4)
    1658:	00008067          	ret
    165c:	ff010737          	lui	a4,0xff010
    1660:	01472783          	lw	a5,20(a4) # ff010014 <__trap_entry+0xff000094>
    1664:	0207f793          	andi	a5,a5,32
    1668:	fe078ce3          	beqz	a5,1660 <sc1f_uart_putchar+0x28>
    166c:	00d00793          	li	a5,13
    1670:	00f72023          	sw	a5,0(a4)
    1674:	fcdff06f          	j	1640 <sc1f_uart_putchar+0x8>

00001678 <uart_puts>:
    1678:	00054683          	lbu	a3,0(a0)
    167c:	02068863          	beqz	a3,16ac <uart_puts+0x34>
    1680:	00a00613          	li	a2,10
    1684:	ff010737          	lui	a4,0xff010
    1688:	00d00593          	li	a1,13
    168c:	00150513          	addi	a0,a0,1
    1690:	02c68063          	beq	a3,a2,16b0 <uart_puts+0x38>
    1694:	01472783          	lw	a5,20(a4) # ff010014 <__trap_entry+0xff000094>
    1698:	0207f793          	andi	a5,a5,32
    169c:	fe078ce3          	beqz	a5,1694 <uart_puts+0x1c>
    16a0:	00d72023          	sw	a3,0(a4)
    16a4:	00054683          	lbu	a3,0(a0)
    16a8:	fe0692e3          	bnez	a3,168c <uart_puts+0x14>
    16ac:	00008067          	ret
    16b0:	01472783          	lw	a5,20(a4)
    16b4:	0207f793          	andi	a5,a5,32
    16b8:	fe078ce3          	beqz	a5,16b0 <uart_puts+0x38>
    16bc:	00b72023          	sw	a1,0(a4)
    16c0:	fd5ff06f          	j	1694 <uart_puts+0x1c>

000016c4 <uart_puthex8>:
    16c4:	00455713          	srli	a4,a0,0x4
    16c8:	00900793          	li	a5,9
    16cc:	00e7b7b3          	sltu	a5,a5,a4
    16d0:	40f007b3          	neg	a5,a5
    16d4:	0077f793          	andi	a5,a5,7
    16d8:	03078793          	addi	a5,a5,48
    16dc:	00f706b3          	add	a3,a4,a5
    16e0:	ff010737          	lui	a4,0xff010
    16e4:	01472783          	lw	a5,20(a4) # ff010014 <__trap_entry+0xff000094>
    16e8:	0207f793          	andi	a5,a5,32
    16ec:	fe078ce3          	beqz	a5,16e4 <uart_puthex8+0x20>
    16f0:	00f57513          	andi	a0,a0,15
    16f4:	00900793          	li	a5,9
    16f8:	00a7b7b3          	sltu	a5,a5,a0
    16fc:	40f007b3          	neg	a5,a5
    1700:	0077f793          	andi	a5,a5,7
    1704:	03078793          	addi	a5,a5,48
    1708:	00d72023          	sw	a3,0(a4)
    170c:	00f50533          	add	a0,a0,a5
    1710:	ff010737          	lui	a4,0xff010
    1714:	01472783          	lw	a5,20(a4) # ff010014 <__trap_entry+0xff000094>
    1718:	0207f793          	andi	a5,a5,32
    171c:	fe078ce3          	beqz	a5,1714 <uart_puthex8+0x50>
    1720:	00a72023          	sw	a0,0(a4)
    1724:	00008067          	ret

00001728 <uart_puthex32>:
    1728:	ff010113          	addi	sp,sp,-16
    172c:	00812423          	sw	s0,8(sp)
    1730:	00050413          	mv	s0,a0
    1734:	01855513          	srli	a0,a0,0x18
    1738:	00112623          	sw	ra,12(sp)
    173c:	f89ff0ef          	jal	ra,16c4 <uart_puthex8>
    1740:	01045513          	srli	a0,s0,0x10
    1744:	0ff57513          	andi	a0,a0,255
    1748:	f7dff0ef          	jal	ra,16c4 <uart_puthex8>
    174c:	01041513          	slli	a0,s0,0x10
    1750:	01055513          	srli	a0,a0,0x10
    1754:	00855513          	srli	a0,a0,0x8
    1758:	f6dff0ef          	jal	ra,16c4 <uart_puthex8>
    175c:	0ff47513          	andi	a0,s0,255
    1760:	00812403          	lw	s0,8(sp)
    1764:	00c12083          	lw	ra,12(sp)
    1768:	01010113          	addi	sp,sp,16
    176c:	f59ff06f          	j	16c4 <uart_puthex8>

00001770 <uart_putdec>:
    1770:	00000793          	li	a5,0
    1774:	00000693          	li	a3,0
    1778:	0c050063          	beqz	a0,1838 <uart_putdec+0xc8>
    177c:	00a00713          	li	a4,10
    1780:	00800893          	li	a7,8
    1784:	00900313          	li	t1,9
    1788:	0080006f          	j	1790 <uart_putdec+0x20>
    178c:	06c37e63          	bgeu	t1,a2,1808 <uart_putdec+0x98>
    1790:	02e57833          	remu	a6,a0,a4
    1794:	00469693          	slli	a3,a3,0x4
    1798:	00078593          	mv	a1,a5
    179c:	00178793          	addi	a5,a5,1
    17a0:	00050613          	mv	a2,a0
    17a4:	00d866b3          	or	a3,a6,a3
    17a8:	02e55533          	divu	a0,a0,a4
    17ac:	ff1790e3          	bne	a5,a7,178c <uart_putdec+0x1c>
    17b0:	00900793          	li	a5,9
    17b4:	04c7f863          	bgeu	a5,a2,1804 <uart_putdec+0x94>
    17b8:	06300793          	li	a5,99
    17bc:	02e575b3          	remu	a1,a0,a4
    17c0:	02e55533          	divu	a0,a0,a4
    17c4:	08c7f863          	bgeu	a5,a2,1854 <uart_putdec+0xe4>
    17c8:	00459593          	slli	a1,a1,0x4
    17cc:	00100813          	li	a6,1
    17d0:	02e577b3          	remu	a5,a0,a4
    17d4:	00f5e5b3          	or	a1,a1,a5
    17d8:	ff010737          	lui	a4,0xff010
    17dc:	00f5f613          	andi	a2,a1,15
    17e0:	03060613          	addi	a2,a2,48
    17e4:	01472783          	lw	a5,20(a4) # ff010014 <__trap_entry+0xff000094>
    17e8:	0207f793          	andi	a5,a5,32
    17ec:	fe078ce3          	beqz	a5,17e4 <uart_putdec+0x74>
    17f0:	00c72023          	sw	a2,0(a4)
    17f4:	0045d593          	srli	a1,a1,0x4
    17f8:	00080663          	beqz	a6,1804 <uart_putdec+0x94>
    17fc:	00000813          	li	a6,0
    1800:	fddff06f          	j	17dc <uart_putdec+0x6c>
    1804:	00700593          	li	a1,7
    1808:	ff010737          	lui	a4,0xff010
    180c:	fff00513          	li	a0,-1
    1810:	00f6f613          	andi	a2,a3,15
    1814:	03060613          	addi	a2,a2,48
    1818:	01472783          	lw	a5,20(a4) # ff010014 <__trap_entry+0xff000094>
    181c:	0207f793          	andi	a5,a5,32
    1820:	fe078ce3          	beqz	a5,1818 <uart_putdec+0xa8>
    1824:	00c72023          	sw	a2,0(a4)
    1828:	fff58593          	addi	a1,a1,-1
    182c:	0046d693          	srli	a3,a3,0x4
    1830:	fea590e3          	bne	a1,a0,1810 <uart_putdec+0xa0>
    1834:	00008067          	ret
    1838:	ff010737          	lui	a4,0xff010
    183c:	01472783          	lw	a5,20(a4) # ff010014 <__trap_entry+0xff000094>
    1840:	0207f793          	andi	a5,a5,32
    1844:	fe078ce3          	beqz	a5,183c <uart_putdec+0xcc>
    1848:	03000793          	li	a5,48
    184c:	00f72023          	sw	a5,0(a4)
    1850:	00008067          	ret
    1854:	00000813          	li	a6,0
    1858:	f81ff06f          	j	17d8 <uart_putdec+0x68>

0000185c <print_bad_trap>:
    185c:	fe010113          	addi	sp,sp,-32
    1860:	01412423          	sw	s4,8(sp)
    1864:	00050a13          	mv	s4,a0
    1868:	00a00513          	li	a0,10
    186c:	00112e23          	sw	ra,28(sp)
    1870:	00812c23          	sw	s0,24(sp)
    1874:	00912a23          	sw	s1,20(sp)
    1878:	00068413          	mv	s0,a3
    187c:	00060493          	mv	s1,a2
    1880:	01212823          	sw	s2,16(sp)
    1884:	01312623          	sw	s3,12(sp)
    1888:	00070913          	mv	s2,a4
    188c:	00058993          	mv	s3,a1
    1890:	da9ff0ef          	jal	ra,1638 <sc1f_uart_putchar>
    1894:	00a00513          	li	a0,10
    1898:	da1ff0ef          	jal	ra,1638 <sc1f_uart_putchar>
    189c:	000a0513          	mv	a0,s4
    18a0:	dd9ff0ef          	jal	ra,1678 <uart_puts>
    18a4:	00001537          	lui	a0,0x1
    18a8:	40850513          	addi	a0,a0,1032 # 1408 <STACK_SIZE+0x8>
    18ac:	dcdff0ef          	jal	ra,1678 <uart_puts>
    18b0:	00098513          	mv	a0,s3
    18b4:	e75ff0ef          	jal	ra,1728 <uart_puthex32>
    18b8:	00001537          	lui	a0,0x1
    18bc:	41050513          	addi	a0,a0,1040 # 1410 <STACK_SIZE+0x10>
    18c0:	db9ff0ef          	jal	ra,1678 <uart_puts>
    18c4:	34102573          	csrr	a0,mepc
    18c8:	e61ff0ef          	jal	ra,1728 <uart_puthex32>
    18cc:	00001537          	lui	a0,0x1
    18d0:	41450513          	addi	a0,a0,1044 # 1414 <STACK_SIZE+0x14>
    18d4:	da5ff0ef          	jal	ra,1678 <uart_puts>
    18d8:	f1402573          	csrr	a0,mhartid
    18dc:	e95ff0ef          	jal	ra,1770 <uart_putdec>
    18e0:	00001537          	lui	a0,0x1
    18e4:	41c50513          	addi	a0,a0,1052 # 141c <STACK_SIZE+0x1c>
    18e8:	d91ff0ef          	jal	ra,1678 <uart_puts>
    18ec:	30002573          	csrr	a0,mstatus
    18f0:	e39ff0ef          	jal	ra,1728 <uart_puthex32>
    18f4:	00001537          	lui	a0,0x1
    18f8:	42850513          	addi	a0,a0,1064 # 1428 <STACK_SIZE+0x28>
    18fc:	d7dff0ef          	jal	ra,1678 <uart_puts>
    1900:	34302573          	csrr	a0,mtval
    1904:	e25ff0ef          	jal	ra,1728 <uart_puthex32>
    1908:	00001537          	lui	a0,0x1
    190c:	43050513          	addi	a0,a0,1072 # 1430 <STACK_SIZE+0x30>
    1910:	d69ff0ef          	jal	ra,1678 <uart_puts>
    1914:	00090513          	mv	a0,s2
    1918:	e11ff0ef          	jal	ra,1728 <uart_puthex32>
    191c:	00001537          	lui	a0,0x1
    1920:	43c50513          	addi	a0,a0,1084 # 143c <STACK_SIZE+0x3c>
    1924:	d55ff0ef          	jal	ra,1678 <uart_puts>
    1928:	00040513          	mv	a0,s0
    192c:	dfdff0ef          	jal	ra,1728 <uart_puthex32>
    1930:	00a00513          	li	a0,10
    1934:	d05ff0ef          	jal	ra,1638 <sc1f_uart_putchar>
    1938:	08048463          	beqz	s1,19c0 <print_bad_trap+0x164>
    193c:	00001937          	lui	s2,0x1
    1940:	4dc90913          	addi	s2,s2,1244 # 14dc <regnames.1818>
    1944:	00000413          	li	s0,0
    1948:	00a00993          	li	s3,10
    194c:	00300a13          	li	s4,3
    1950:	02000513          	li	a0,32
    1954:	ce5ff0ef          	jal	ra,1638 <sc1f_uart_putchar>
    1958:	02000513          	li	a0,32
    195c:	cddff0ef          	jal	ra,1638 <sc1f_uart_putchar>
    1960:	03345533          	divu	a0,s0,s3
    1964:	00490913          	addi	s2,s2,4
    1968:	00448493          	addi	s1,s1,4
    196c:	03050513          	addi	a0,a0,48
    1970:	cc9ff0ef          	jal	ra,1638 <sc1f_uart_putchar>
    1974:	03347533          	remu	a0,s0,s3
    1978:	03050513          	addi	a0,a0,48
    197c:	cbdff0ef          	jal	ra,1638 <sc1f_uart_putchar>
    1980:	02000513          	li	a0,32
    1984:	cb5ff0ef          	jal	ra,1638 <sc1f_uart_putchar>
    1988:	ffc92503          	lw	a0,-4(s2)
    198c:	cedff0ef          	jal	ra,1678 <uart_puts>
    1990:	02000513          	li	a0,32
    1994:	ca5ff0ef          	jal	ra,1638 <sc1f_uart_putchar>
    1998:	ffc4a503          	lw	a0,-4(s1)
    199c:	d8dff0ef          	jal	ra,1728 <uart_puthex32>
    19a0:	00347793          	andi	a5,s0,3
    19a4:	00a00513          	li	a0,10
    19a8:	00140413          	addi	s0,s0,1
    19ac:	01478463          	beq	a5,s4,19b4 <print_bad_trap+0x158>
    19b0:	02000513          	li	a0,32
    19b4:	c85ff0ef          	jal	ra,1638 <sc1f_uart_putchar>
    19b8:	02000793          	li	a5,32
    19bc:	f8f41ae3          	bne	s0,a5,1950 <print_bad_trap+0xf4>
    19c0:	01c12083          	lw	ra,28(sp)
    19c4:	01812403          	lw	s0,24(sp)
    19c8:	01412483          	lw	s1,20(sp)
    19cc:	01012903          	lw	s2,16(sp)
    19d0:	00c12983          	lw	s3,12(sp)
    19d4:	00812a03          	lw	s4,8(sp)
    19d8:	02010113          	addi	sp,sp,32
    19dc:	00008067          	ret

000019e0 <bad_trap>:
    19e0:	ff010113          	addi	sp,sp,-16
    19e4:	00112623          	sw	ra,12(sp)
    19e8:	342025f3          	csrr	a1,mcause
    19ec:	c00026f3          	rdcycle	a3
    19f0:	c0202773          	rdinstret	a4
    19f4:	00001537          	lui	a0,0x1
    19f8:	00000613          	li	a2,0
    19fc:	44850513          	addi	a0,a0,1096 # 1448 <STACK_SIZE+0x48>
    1a00:	e5dff0ef          	jal	ra,185c <print_bad_trap>
    1a04:	6b90d0ef          	jal	ra,f8bc <_hart_halt>

00001a08 <bad_trap_handler>:
    1a08:	00068713          	mv	a4,a3
    1a0c:	00060693          	mv	a3,a2
    1a10:	00058613          	mv	a2,a1
    1a14:	00050593          	mv	a1,a0
    1a18:	00001537          	lui	a0,0x1
    1a1c:	ff010113          	addi	sp,sp,-16
    1a20:	44c50513          	addi	a0,a0,1100 # 144c <STACK_SIZE+0x4c>
    1a24:	00112623          	sw	ra,12(sp)
    1a28:	e35ff0ef          	jal	ra,185c <print_bad_trap>
    1a2c:	6910d0ef          	jal	ra,f8bc <_hart_halt>

00001a30 <mcall_trap>:
    1a30:	0445a783          	lw	a5,68(a1)
    1a34:	ff010113          	addi	sp,sp,-16
    1a38:	00812423          	sw	s0,8(sp)
    1a3c:	00112623          	sw	ra,12(sp)
    1a40:	00200713          	li	a4,2
    1a44:	00058413          	mv	s0,a1
    1a48:	04e78463          	beq	a5,a4,1a90 <mcall_trap+0x60>
    1a4c:	00800713          	li	a4,8
    1a50:	06e78663          	beq	a5,a4,1abc <mcall_trap+0x8c>
    1a54:	00100693          	li	a3,1
    1a58:	fa800713          	li	a4,-88
    1a5c:	00d79863          	bne	a5,a3,1a6c <mcall_trap+0x3c>
    1a60:	0285c503          	lbu	a0,40(a1)
    1a64:	bd5ff0ef          	jal	ra,1638 <sc1f_uart_putchar>
    1a68:	00000713          	li	a4,0
    1a6c:	02e42423          	sw	a4,40(s0)
    1a70:	341027f3          	csrr	a5,mepc
    1a74:	00478793          	addi	a5,a5,4
    1a78:	34179073          	csrw	mepc,a5
    1a7c:	00c12083          	lw	ra,12(sp)
    1a80:	00812403          	lw	s0,8(sp)
    1a84:	00000513          	li	a0,0
    1a88:	01010113          	addi	sp,sp,16
    1a8c:	00008067          	ret
    1a90:	ff010737          	lui	a4,0xff010
    1a94:	01472783          	lw	a5,20(a4) # ff010014 <__trap_entry+0xff000094>
    1a98:	0017f793          	andi	a5,a5,1
    1a9c:	00078c63          	beqz	a5,1ab4 <mcall_trap+0x84>
    1aa0:	00072703          	lw	a4,0(a4)
    1aa4:	000107b7          	lui	a5,0x10
    1aa8:	fff78793          	addi	a5,a5,-1 # ffff <__trap_entry+0x7f>
    1aac:	00f77733          	and	a4,a4,a5
    1ab0:	fbdff06f          	j	1a6c <mcall_trap+0x3c>
    1ab4:	fff00713          	li	a4,-1
    1ab8:	fb5ff06f          	j	1a6c <mcall_trap+0x3c>
    1abc:	4440e0ef          	jal	ra,ff00 <_start>

00001ac0 <sc1f_leds_hex.part.0>:
    1ac0:	00351793          	slli	a5,a0,0x3
    1ac4:	00001537          	lui	a0,0x1
    1ac8:	55c50513          	addi	a0,a0,1372 # 155c <HEX_MAP>
    1acc:	00f50533          	add	a0,a0,a5
    1ad0:	00052683          	lw	a3,0(a0)
    1ad4:	00452603          	lw	a2,4(a0)
    1ad8:	0ff00713          	li	a4,255
    1adc:	0006d783          	lhu	a5,0(a3)
    1ae0:	00c71733          	sll	a4,a4,a2
    1ae4:	fff74713          	not	a4,a4
    1ae8:	01079793          	slli	a5,a5,0x10
    1aec:	0107d793          	srli	a5,a5,0x10
    1af0:	0ff5c593          	xori	a1,a1,255
    1af4:	00e7f7b3          	and	a5,a5,a4
    1af8:	00c595b3          	sll	a1,a1,a2
    1afc:	00b7e7b3          	or	a5,a5,a1
    1b00:	01079793          	slli	a5,a5,0x10
    1b04:	0107d793          	srli	a5,a5,0x10
    1b08:	00f69023          	sh	a5,0(a3)
    1b0c:	00008067          	ret

00001b10 <sc1f_leds_init>:
    1b10:	ff010113          	addi	sp,sp,-16
    1b14:	00812423          	sw	s0,8(sp)
    1b18:	00912223          	sw	s1,4(sp)
    1b1c:	00112623          	sw	ra,12(sp)
    1b20:	00000413          	li	s0,0
    1b24:	00600493          	li	s1,6
    1b28:	00040513          	mv	a0,s0
    1b2c:	00000593          	li	a1,0
    1b30:	00140413          	addi	s0,s0,1
    1b34:	f8dff0ef          	jal	ra,1ac0 <sc1f_leds_hex.part.0>
    1b38:	fe9418e3          	bne	s0,s1,1b28 <sc1f_leds_init+0x18>
    1b3c:	00c12083          	lw	ra,12(sp)
    1b40:	00812403          	lw	s0,8(sp)
    1b44:	ff0217b7          	lui	a5,0xff021
    1b48:	0007a023          	sw	zero,0(a5) # ff021000 <__trap_entry+0xff011080>
    1b4c:	00412483          	lw	s1,4(sp)
    1b50:	01010113          	addi	sp,sp,16
    1b54:	00008067          	ret

Disassembly of section .startup:

0000f800 <_crt_start>:
    f800:	000022b7          	lui	t0,0x2
    f804:	88028293          	addi	t0,t0,-1920 # 1880 <print_bad_trap+0x24>
    f808:	30029073          	csrw	mstatus,t0
    f80c:	00000297          	auipc	t0,0x0
    f810:	22428293          	addi	t0,t0,548 # fa30 <__trap_hander_1v10>
    f814:	30529073          	csrw	mtvec,t0
    f818:	34401073          	csrw	mip,zero
    f81c:	08000293          	li	t0,128
    f820:	30429073          	csrw	mie,t0
    f824:	ffff2197          	auipc	gp,0xffff2
    f828:	3dc18193          	addi	gp,gp,988 # 1c00 <__global_pointer$>
    f82c:	f1402573          	csrr	a0,mhartid
    f830:	08051663          	bnez	a0,f8bc <_hart_halt>
    f834:	ffff2297          	auipc	t0,0xffff2
    f838:	bcc28293          	addi	t0,t0,-1076 # 1400 <STACK_SIZE>
    f83c:	ffff2317          	auipc	t1,0xffff2
    f840:	bc430313          	addi	t1,t1,-1084 # 1400 <STACK_SIZE>
    f844:	00c0006f          	j	f850 <_crt_start+0x50>
    f848:	0002a023          	sw	zero,0(t0)
    f84c:	00428293          	addi	t0,t0,4
    f850:	fe62ece3          	bltu	t0,t1,f848 <_crt_start+0x48>
    f854:	ffff2117          	auipc	sp,0xffff2
    f858:	a2c10113          	addi	sp,sp,-1492 # 1280 <__TLS0_BASE__>
    f85c:	00010213          	mv	tp,sp
    f860:	ffff2297          	auipc	t0,0xffff2
    f864:	ba028293          	addi	t0,t0,-1120 # 1400 <STACK_SIZE>
    f868:	ffff2317          	auipc	t1,0xffff2
    f86c:	b9830313          	addi	t1,t1,-1128 # 1400 <STACK_SIZE>
    f870:	00020393          	mv	t2,tp
    f874:	0140006f          	j	f888 <_crt_start+0x88>
    f878:	0002a503          	lw	a0,0(t0)
    f87c:	00a3a023          	sw	a0,0(t2)
    f880:	00428293          	addi	t0,t0,4
    f884:	00438393          	addi	t2,t2,4
    f888:	fe62e8e3          	bltu	t0,t1,f878 <_crt_start+0x78>
    f88c:	ffff2297          	auipc	t0,0xffff2
    f890:	cf428293          	addi	t0,t0,-780 # 1580 <_tbss_end>
    f894:	406282b3          	sub	t0,t0,t1
    f898:	007282b3          	add	t0,t0,t2
    f89c:	00c0006f          	j	f8a8 <_crt_start+0xa8>
    f8a0:	0003a023          	sw	zero,0(t2)
    f8a4:	00438393          	addi	t2,t2,4
    f8a8:	fe53ece3          	bltu	t2,t0,f8a0 <_crt_start+0xa0>
    f8ac:	34011073          	csrw	mscratch,sp
    f8b0:	00000513          	li	a0,0
    f8b4:	00000593          	li	a1,0
    f8b8:	ce9f106f          	j	15a0 <main>

0000f8bc <_hart_halt>:
    f8bc:	08000293          	li	t0,128
    f8c0:	3042b073          	csrc	mie,t0
    f8c4:	10500073          	wfi
    f8c8:	ffdff06f          	j	f8c4 <_hart_halt+0x8>
    f8cc:	00000013          	nop
    f8d0:	00000013          	nop
    f8d4:	00000013          	nop
    f8d8:	00000013          	nop
    f8dc:	00000013          	nop

0000f8e0 <interrupt_handler>:
    f8e0:	900f206f          	j	19e0 <bad_trap>
    f8e4:	00000013          	nop
    f8e8:	00000013          	nop
    f8ec:	00000013          	nop
    f8f0:	00000013          	nop
    f8f4:	00000013          	nop
    f8f8:	00000013          	nop
    f8fc:	00000013          	nop

0000f900 <handle_trap_in_machine_mode>:
    f900:	02c12823          	sw	a2,48(sp)
    f904:	02d12a23          	sw	a3,52(sp)
    f908:	c0002673          	rdcycle	a2
    f90c:	c02026f3          	rdinstret	a3
    f910:	00112223          	sw	ra,4(sp)
    f914:	340115f3          	csrrw	a1,mscratch,sp
    f918:	00b12423          	sw	a1,8(sp)
    f91c:	00312623          	sw	gp,12(sp)
    f920:	00412823          	sw	tp,16(sp)
    f924:	00512a23          	sw	t0,20(sp)
    f928:	00612c23          	sw	t1,24(sp)
    f92c:	00712e23          	sw	t2,28(sp)
    f930:	02812023          	sw	s0,32(sp)
    f934:	02912223          	sw	s1,36(sp)
    f938:	02e12c23          	sw	a4,56(sp)
    f93c:	02f12e23          	sw	a5,60(sp)
    f940:	05012023          	sw	a6,64(sp)
    f944:	05112223          	sw	a7,68(sp)
    f948:	05212423          	sw	s2,72(sp)
    f94c:	05312623          	sw	s3,76(sp)
    f950:	05412823          	sw	s4,80(sp)
    f954:	05512a23          	sw	s5,84(sp)
    f958:	05612c23          	sw	s6,88(sp)
    f95c:	05712e23          	sw	s7,92(sp)
    f960:	07812023          	sw	s8,96(sp)
    f964:	07912223          	sw	s9,100(sp)
    f968:	07a12423          	sw	s10,104(sp)
    f96c:	07b12623          	sw	s11,108(sp)
    f970:	07c12823          	sw	t3,112(sp)
    f974:	07d12a23          	sw	t4,116(sp)
    f978:	07e12c23          	sw	t5,120(sp)
    f97c:	07f12e23          	sw	t6,124(sp)
    f980:	ffff2197          	auipc	gp,0xffff2
    f984:	28018193          	addi	gp,gp,640 # 1c00 <__global_pointer$>
    f988:	00010593          	mv	a1,sp
    f98c:	00800293          	li	t0,8
    f990:	00a28663          	beq	t0,a0,f99c <handle_trap_in_machine_mode+0x9c>
    f994:	00b00293          	li	t0,11
    f998:	08a29663          	bne	t0,a0,fa24 <handle_trap_in_machine_mode+0x124>
    f99c:	00010213          	mv	tp,sp
    f9a0:	890f20ef          	jal	ra,1a30 <mcall_trap>
    f9a4:	00412083          	lw	ra,4(sp)
    f9a8:	00c12183          	lw	gp,12(sp)
    f9ac:	01012203          	lw	tp,16(sp)
    f9b0:	01412283          	lw	t0,20(sp)
    f9b4:	01812303          	lw	t1,24(sp)
    f9b8:	01c12383          	lw	t2,28(sp)
    f9bc:	02012403          	lw	s0,32(sp)
    f9c0:	02412483          	lw	s1,36(sp)
    f9c4:	02c12583          	lw	a1,44(sp)
    f9c8:	03012603          	lw	a2,48(sp)
    f9cc:	03412683          	lw	a3,52(sp)
    f9d0:	03812703          	lw	a4,56(sp)
    f9d4:	03c12783          	lw	a5,60(sp)
    f9d8:	04012803          	lw	a6,64(sp)
    f9dc:	04412883          	lw	a7,68(sp)
    f9e0:	04812903          	lw	s2,72(sp)
    f9e4:	04c12983          	lw	s3,76(sp)
    f9e8:	05012a03          	lw	s4,80(sp)
    f9ec:	05412a83          	lw	s5,84(sp)
    f9f0:	05812b03          	lw	s6,88(sp)
    f9f4:	05c12b83          	lw	s7,92(sp)
    f9f8:	06012c03          	lw	s8,96(sp)
    f9fc:	06412c83          	lw	s9,100(sp)
    fa00:	06812d03          	lw	s10,104(sp)
    fa04:	06c12d83          	lw	s11,108(sp)
    fa08:	07012e03          	lw	t3,112(sp)
    fa0c:	07412e83          	lw	t4,116(sp)
    fa10:	07812f03          	lw	t5,120(sp)
    fa14:	07c12f83          	lw	t6,124(sp)
    fa18:	02812503          	lw	a0,40(sp)
    fa1c:	00812103          	lw	sp,8(sp)
    fa20:	30200073          	mret
    fa24:	fe5f106f          	j	1a08 <bad_trap_handler>
    fa28:	00000013          	nop
    fa2c:	00000013          	nop

0000fa30 <__trap_hander_1v10>:
    fa30:	34011173          	csrrw	sp,mscratch,sp
    fa34:	02a12423          	sw	a0,40(sp)
    fa38:	02b12623          	sw	a1,44(sp)
    fa3c:	34202573          	csrr	a0,mcause
    fa40:	ea0540e3          	bltz	a0,f8e0 <interrupt_handler>
    fa44:	ebdff06f          	j	f900 <handle_trap_in_machine_mode>
	...

Disassembly of section .vectors:

0000ff00 <_start>:
    ff00:	901ff06f          	j	f800 <_crt_start>
    ff04:	00000013          	nop
    ff08:	00000013          	nop
    ff0c:	00000013          	nop
    ff10:	00000013          	nop
    ff14:	00000013          	nop
    ff18:	00000013          	nop
    ff1c:	00000013          	nop
    ff20:	00000013          	nop
    ff24:	00000013          	nop
    ff28:	00000013          	nop
    ff2c:	00000013          	nop
    ff30:	00000013          	nop
    ff34:	00000013          	nop
    ff38:	00000013          	nop
    ff3c:	00000013          	nop

0000ff40 <__nmi_trap_entry>:
    ff40:	aa1f106f          	j	19e0 <bad_trap>
    ff44:	00000013          	nop
    ff48:	00000013          	nop
    ff4c:	00000013          	nop
    ff50:	00000013          	nop
    ff54:	00000013          	nop
    ff58:	00000013          	nop
    ff5c:	00000013          	nop
    ff60:	00000013          	nop
    ff64:	00000013          	nop
    ff68:	00000013          	nop
    ff6c:	00000013          	nop
    ff70:	00000013          	nop
    ff74:	00000013          	nop
    ff78:	00000013          	nop
    ff7c:	00000013          	nop

0000ff80 <__trap_entry>:
    ff80:	ab1ff06f          	j	fa30 <__trap_hander_1v10>
	...
